; Function Attrs: nounwind uwtable
define hidden i32 @mbedtls_aes_xts_setkey_enc(ptr noundef %0, ptr noundef %1, i32 noundef %2) local_unnamed_addr #2 {
  switch i32 %2, label %mbedtls_aes_xts_decode_keys.exit [
    i32 256, label %4
    i32 512, label %4
  ]

4:                                                ; preds = %3, %3
  %5 = lshr i32 %2, 1
  %6 = lshr i32 %2, 4
  %7 = zext nneg i32 %6 to i64
  %8 = getelementptr inbounds nuw i8, ptr %1, i64 %7
  %9 = getelementptr inbounds nuw i8, ptr %0, i64 288
  %10 = tail call i32 @mbedtls_aes_setkey_enc(ptr noundef nonnull %9, ptr noundef %8, i32 noundef %5)
  %.not10 = icmp eq i32 %10, 0
  br i1 %.not10, label %11, label %mbedtls_aes_xts_decode_keys.exit

11:                                               ; preds = %4
  %12 = tail call i32 @mbedtls_aes_setkey_enc(ptr noundef nonnull %0, ptr noundef %1, i32 noundef %5)
  br label %mbedtls_aes_xts_decode_keys.exit

mbedtls_aes_xts_decode_keys.exit:                 ; preds = %3, %4, %11
  %.0 = phi i32 [ %12, %11 ], [ %10, %4 ], [ -32, %3 ]
  ret i32 %.0
}